(lp1
S'python_data'
p2
a.ccopy_reg
_reconstructor
p1
(cSU2.eval.design
Design
p2
c__builtin__
object
p3
NtRp4
(dp5
S'files'
p6
cSU2.util.ordered_bunch
OrderedBunch
p7
((lp8
(lp9
S'MESH'
p10
aS'Benzing.su2'
p11
aa(lp12
S'DIRECT'
p13
aS'DESIGNS/DSN_009/solution_flow.dat'
p14
aa(lp15
S'ADJOINT_DRAG'
p16
aS'DESIGNS/DSN_009/solution_adj_cd.dat'
p17
aa(lp18
S'ADJOINT_LIFT'
p19
aS'DESIGNS/DSN_009/solution_adj_cl.dat'
p20
aatRp21
(dp22
S'_initialized'
p23
I01
sbsS'funcs'
p24
g7
((ltRp25
(dp26
g23
I01
sbsS'filename'
p27
S'design.pkl'
p28
sS'state'
p29
cSU2.io.state
State
p30
((lp31
(lp32
S'FUNCTIONS'
p33
ag25
aa(lp34
S'GRADIENTS'
p35
ag7
((ltRp36
(dp37
g23
I01
sbaa(lp38
S'VARIABLES'
p39
ag7
((ltRp40
(dp41
g23
I01
sbaa(lp42
S'FILES'
p43
ag21
aa(lp44
S'HISTORY'
p45
ag7
((ltRp46
(dp47
g23
I01
sbaatRp48
(dp49
g23
I01
sS'_timestamp'
p50
F1480396509.440232
sbsS'folder'
p51
S'DESIGNS/DSN_020'
p52
sS'config'
p53
cSU2.io.config
Config
p54
((lp55
(lp56
S'PHYSICAL_PROBLEM'
p57
aS'NAVIER_STOKES'
p58
aa(lp59
S'KIND_TURB_MODEL'
p60
aS'NONE'
p61
aa(lp62
S'MATH_PROBLEM'
p63
aS'DIRECT'
p64
aa(lp65
S'RESTART_SOL'
p66
aS'NO'
p67
aa(lp68
S'MACH_NUMBER'
p69
aF0.11600000000000001
aa(lp70
S'AoA'
p71
aF-16
aa(lp72
S'FREESTREAM_TEMPERATURE'
p73
aS'300'
p74
aa(lp75
S'REYNOLDS_NUMBER'
p76
aS'281551.0'
p77
aa(lp78
S'REYNOLDS_LENGTH'
p79
aS'1.0'
p80
aa(lp81
S'GAMMA_VALUE'
p82
aS'1.4'
p83
aa(lp84
S'GAS_CONSTANT'
p85
aS'287.87'
p86
aa(lp87
S'REF_ORIGIN_MOMENT_X'
p88
aS'0.25'
p89
aa(lp90
S'REF_ORIGIN_MOMENT_Y'
p91
aS'0.00'
p92
aa(lp93
S'REF_ORIGIN_MOMENT_Z'
p94
aS'0.00'
p95
aa(lp96
S'REF_LENGTH_MOMENT'
p97
aS'1.0'
p98
aa(lp99
S'REF_AREA'
p100
aS'1.0'
p101
aa(lp102
S'REF_DIMENSIONALIZATION'
p103
aS'DIMENSIONAL'
p104
aa(lp105
S'MARKER_EULER'
p106
a(lp107
S'airfoil'
p108
aaa(lp109
S'MARKER_FAR'
p110
a(lp111
S'farfield'
p112
aaa(lp113
S'MARKER_PLOTTING'
p114
a(lp115
S'airfoil'
p116
aaa(lp117
S'MARKER_MONITORING'
p118
a(lp119
S'airfoil'
p120
aaa(lp121
S'MARKER_DESIGNING'
p122
aS'( airfoil )'
p123
aa(lp124
S'NUM_METHOD_GRAD'
p125
aS'WEIGHTED_LEAST_SQUARES'
p126
aa(lp127
S'OBJECTIVE_FUNCTION'
p128
aS'DRAG'
p129
aa(lp130
S'CFL_NUMBER'
p131
aF4
aa(lp132
S'EXT_ITER'
p133
aI2000
aa(lp134
S'LINEAR_SOLVER'
p135
aS'FGMRES'
p136
aa(lp137
S'LINEAR_SOLVER_PREC'
p138
aS'LU_SGS'
p139
aa(lp140
S'LINEAR_SOLVER_ERROR'
p141
aS'1E-6'
p142
aa(lp143
S'LINEAR_SOLVER_ITER'
p144
aS'10'
p145
aa(lp146
S'MGLEVEL'
p147
aS'0'
aa(lp148
S'MGCYCLE'
p149
aS'W_CYCLE'
p150
aa(lp151
S'MG_PRE_SMOOTH'
p152
aS'( 1, 2, 3, 3 )'
p153
aa(lp154
S'MG_POST_SMOOTH'
p155
aS'( 0, 0, 0, 0 )'
p156
aa(lp157
S'MG_CORRECTION_SMOOTH'
p158
aS'( 0, 0, 0, 0 )'
p159
aa(lp160
S'MG_DAMP_RESTRICTION'
p161
aS'1.0'
p162
aa(lp163
S'MG_DAMP_PROLONGATION'
p164
aS'1.0'
p165
aa(lp166
S'CONV_NUM_METHOD_FLOW'
p167
aS'JST'
p168
aa(lp169
S'SPATIAL_ORDER_FLOW'
p170
aS'2ND_ORDER_LIMITER'
p171
aa(lp172
S'SLOPE_LIMITER_FLOW'
p173
aS'VENKATAKRISHNAN'
p174
aa(lp175
S'AD_COEFF_FLOW'
p176
aS'( 0.15, 0.5, 0.02 )'
p177
aa(lp178
S'TIME_DISCRE_FLOW'
p179
aS'EULER_IMPLICIT'
p180
aa(lp181
S'CONV_NUM_METHOD_ADJFLOW'
p182
aS'JST'
p183
aa(lp184
S'SPATIAL_ORDER_ADJFLOW'
p185
aS'2ND_ORDER'
p186
aa(lp187
S'SLOPE_LIMITER_ADJFLOW'
p188
aS'VENKATAKRISHNAN'
p189
aa(lp190
S'AD_COEFF_ADJFLOW'
p191
aS'( 0.15, 0.5, 0.02 )'
p192
aa(lp193
S'CFL_REDUCTION_ADJFLOW'
p194
aS'0.5'
p195
aa(lp196
S'TIME_DISCRE_ADJFLOW'
p197
aS'EULER_IMPLICIT'
p198
aa(lp199
S'DV_KIND'
p200
a(lp201
S'HICKS_HENNE'
p202
ag202
ag202
ag202
ag202
ag202
ag202
ag202
ag202
ag202
ag202
ag202
ag202
ag202
ag202
ag202
ag202
ag202
ag202
ag202
ag202
ag202
ag202
ag202
ag202
ag202
ag202
ag202
ag202
ag202
ag202
ag202
ag202
ag202
ag202
ag202
ag202
ag202
aaa(lp203
S'DV_MARKER'
p204
a(lp205
S'airfoil'
p206
aaa(lp207
S'DV_PARAM'
p208
a(dp209
S'PARAM'
p210
(lp211
(lp212
F0
aF0.050000000000000003
aa(lp213
F0
aF0.10000000000000001
aa(lp214
F0
aF0.14999999999999999
aa(lp215
F0
aF0.20000000000000001
aa(lp216
F0
aF0.25
aa(lp217
F0
aF0.29999999999999999
aa(lp218
F0
aF0.34999999999999998
aa(lp219
F0
aF0.40000000000000002
aa(lp220
F0
aF0.45000000000000001
aa(lp221
F0
aF0.5
aa(lp222
F0
aF0.55000000000000004
aa(lp223
F0
aF0.59999999999999998
aa(lp224
F0
aF0.65000000000000002
aa(lp225
F0
aF0.69999999999999996
aa(lp226
F0
aF0.75
aa(lp227
F0
aF0.80000000000000004
aa(lp228
F0
aF0.84999999999999998
aa(lp229
F0
aF0.90000000000000002
aa(lp230
F0
aF0.94999999999999996
aa(lp231
F1
aF0.050000000000000003
aa(lp232
F1
aF0.10000000000000001
aa(lp233
F1
aF0.14999999999999999
aa(lp234
F1
aF0.20000000000000001
aa(lp235
F1
aF0.25
aa(lp236
F1
aF0.29999999999999999
aa(lp237
F1
aF0.34999999999999998
aa(lp238
F1
aF0.40000000000000002
aa(lp239
F1
aF0.45000000000000001
aa(lp240
F1
aF0.5
aa(lp241
F1
aF0.55000000000000004
aa(lp242
F1
aF0.59999999999999998
aa(lp243
F1
aF0.65000000000000002
aa(lp244
F1
aF0.69999999999999996
aa(lp245
F1
aF0.75
aa(lp246
F1
aF0.80000000000000004
aa(lp247
F1
aF0.84999999999999998
aa(lp248
F1
aF0.90000000000000002
aa(lp249
F1
aF0.94999999999999996
aasS'FFDTAG'
p250
(lp251
(lp252
a(lp253
a(lp254
a(lp255
a(lp256
a(lp257
a(lp258
a(lp259
a(lp260
a(lp261
a(lp262
a(lp263
a(lp264
a(lp265
a(lp266
a(lp267
a(lp268
a(lp269
a(lp270
a(lp271
a(lp272
a(lp273
a(lp274
a(lp275
a(lp276
a(lp277
a(lp278
a(lp279
a(lp280
a(lp281
a(lp282
a(lp283
a(lp284
a(lp285
a(lp286
a(lp287
a(lp288
a(lp289
asS'SIZE'
p290
(lp291
I1
aI1
aI1
aI1
aI1
aI1
aI1
aI1
aI1
aI1
aI1
aI1
aI1
aI1
aI1
aI1
aI1
aI1
aI1
aI1
aI1
aI1
aI1
aI1
aI1
aI1
aI1
aI1
aI1
aI1
aI1
aI1
aI1
aI1
aI1
aI1
aI1
aI1
asaa(lp292
S'DV_VALUE'
p293
a(lp294
F0.01
aaa(lp295
S'MOTION_FILENAME'
p296
aS'mesh_motion.dat'
p297
aa(lp298
S'DEFORM_LINEAR_ITER'
p299
aS'500'
p300
aa(lp301
S'DEFORM_NONLINEAR_ITER'
p302
aS'1'
aa(lp303
S'DEFORM_CONSOLE_OUTPUT'
p304
aS'YES'
p305
aa(lp306
S'DEFORM_TOL_FACTOR'
p307
aS'0.001'
p308
aa(lp309
S'DEFORM_STIFFNESS_TYPE'
p310
aS'INVERSE_VOLUME'
p311
aa(lp312
S'VISUALIZE_DEFORMATION'
p313
aS'NO'
p314
aa(lp315
S'CONV_CRITERIA'
p316
aS'RESIDUAL'
p317
aa(lp318
S'RESIDUAL_REDUCTION'
p319
aS'6'
aa(lp320
S'RESIDUAL_MINVAL'
p321
aS'-8'
p322
aa(lp323
S'STARTCONV_ITER'
p324
aS'10'
p325
aa(lp326
S'CAUCHY_ELEMS'
p327
aS'100'
p328
aa(lp329
S'CAUCHY_EPS'
p330
aS'1E-6'
p331
aa(lp332
S'CAUCHY_FUNC_FLOW'
p333
aS'DRAG'
p334
aa(lp335
S'MESH_FILENAME'
p336
ag11
aa(lp337
S'MESH_FORMAT'
p338
aS'SU2'
p339
aa(lp340
S'MESH_OUT_FILENAME'
p341
aS'mesh_out.su2'
p342
aa(lp343
S'SOLUTION_FLOW_FILENAME'
p344
aS'solution_flow.dat'
p345
aa(lp346
S'SOLUTION_ADJ_FILENAME'
p347
aS'solution_adj.dat'
p348
aa(lp349
S'OUTPUT_FORMAT'
p350
aS'TECPLOT'
p351
aa(lp352
S'CONV_FILENAME'
p353
aS'history'
p354
aa(lp355
S'RESTART_FLOW_FILENAME'
p356
aS'restart_flow.dat'
p357
aa(lp358
S'RESTART_ADJ_FILENAME'
p359
aS'restart_adj.dat'
p360
aa(lp361
S'VOLUME_FLOW_FILENAME'
p362
aS'flow'
p363
aa(lp364
S'VOLUME_ADJ_FILENAME'
p365
aS'adjoint'
p366
aa(lp367
S'GRAD_OBJFUNC_FILENAME'
p368
aS'of_grad.dat'
p369
aa(lp370
S'SURFACE_FLOW_FILENAME'
p371
aS'surface_flow'
p372
aa(lp373
S'SURFACE_ADJ_FILENAME'
p374
aS'surface_adjoint'
p375
aa(lp376
S'WRT_SOL_FREQ'
p377
aF250
aa(lp378
S'WRT_CON_FREQ'
p379
aS'1'
aa(lp380
S'OPT_OBJECTIVE'
p381
a(dp382
S'DRAG'
p383
(dp384
S'SCALE'
p385
F0.001
ssaa(lp386
S'OPT_CONSTRAINT'
p387
a(dp388
S'INEQUALITY'
p389
ccollections
OrderedDict
p390
((lp391
(lp392
S'LIFT'
p393
a(dp394
g385
F0.001
sS'VALUE'
p395
F-1
sS'SIGN'
p396
S'<'
saatRp397
sS'EQUALITY'
p398
g390
((ltRp399
saa(lp400
S'DEFINITION_DV'
p401
a(dp402
S'KIND'
p403
g201
sg385
(lp404
F1
aF1
aF1
aF1
aF1
aF1
aF1
aF1
aF1
aF1
aF1
aF1
aF1
aF1
aF1
aF1
aF1
aF1
aF1
aF1
aF1
aF1
aF1
aF1
aF1
aF1
aF1
aF1
aF1
aF1
aF1
aF1
aF1
aF1
aF1
aF1
aF1
aF1
asg210
g211
sS'MARKER'
p405
(lp406
g205
a(lp407
S'airfoil'
p408
aa(lp409
S'airfoil'
p410
aa(lp411
S'airfoil'
p412
aa(lp413
S'airfoil'
p414
aa(lp415
S'airfoil'
p416
aa(lp417
S'airfoil'
p418
aa(lp419
S'airfoil'
p420
aa(lp421
S'airfoil'
p422
aa(lp423
S'airfoil'
p424
aa(lp425
S'airfoil'
p426
aa(lp427
S'airfoil'
p428
aa(lp429
S'airfoil'
p430
aa(lp431
S'airfoil'
p432
aa(lp433
S'airfoil'
p434
aa(lp435
S'airfoil'
p436
aa(lp437
S'airfoil'
p438
aa(lp439
S'airfoil'
p440
aa(lp441
S'airfoil'
p442
aa(lp443
S'airfoil'
p444
aa(lp445
S'airfoil'
p446
aa(lp447
S'airfoil'
p448
aa(lp449
S'airfoil'
p450
aa(lp451
S'airfoil'
p452
aa(lp453
S'airfoil'
p454
aa(lp455
S'airfoil'
p456
aa(lp457
S'airfoil'
p458
aa(lp459
S'airfoil'
p460
aa(lp461
S'airfoil'
p462
aa(lp463
S'airfoil'
p464
aa(lp465
S'airfoil'
p466
aa(lp467
S'airfoil'
p468
aa(lp469
S'airfoil'
p470
aa(lp471
S'airfoil'
p472
aa(lp473
S'airfoil'
p474
aa(lp475
S'airfoil'
p476
aa(lp477
S'airfoil'
p478
aa(lp479
S'airfoil'
p480
aasg250
g251
sg290
g291
saa(lp481
S'DV_VALUE_NEW'
p482
a(lp483
F0.011233719240877965
aF0.01010631077274601
aF0.0085338991163221301
aF0.0069406055326763135
aF0.0054551899757451158
aF0.0041251533410203416
aF0.0029655264670131278
aF0.0019755642620838823
aF0.001145924688825538
aF0.00046253512984613545
aF-9.1858278717360905e-05
aF-0.00053702451659405485
aF-0.00089506632743770306
aF-0.0011888128827731862
aF-0.0014345747526313961
aF-0.0016198010384928902
aF-0.0016553366089098842
aF-0.0013843251542450959
aF-0.0012419367555265425
aF0.0019779935911878499
aF0.0015335220289757233
aF0.0012061825873831396
aF0.00099779259271406181
aF0.00087243037527857991
aF0.00079980640757505109
aF0.00076060814687517269
aF0.00074449027283007038
aF0.000746895099016813
aF0.00076637944514377923
aF0.00080297024914296078
aF0.00085779591228817345
aF0.00093395794912336184
aF0.0010389561700024908
aF0.0011878416314771111
aF0.0014065869634532183
aF0.0017246193044400645
aF0.0021293326418933139
aF0.0026380782200805582
aaa(lp484
S'DV_VALUE_OLD'
p485
a(lp486
F0
aF0
aF0
aF0
aF0
aF0
aF0
aF0
aF0
aF0
aF0
aF0
aF0
aF0
aF0
aF0
aF0
aF0
aF0
aF0
aF0
aF0
aF0
aF0
aF0
aF0
aF0
aF0
aF0
aF0
aF0
aF0
aF0
aF0
aF0
aF0
aF0
aF0
aaa(lp487
S'OPT_ITERATIONS'
p488
aI100
aa(lp489
S'OPT_ACCURACY'
p490
aF1e-10
aa(lp491
S'OPT_BOUND_UPPER'
p492
aF10000000000
aa(lp493
S'OPT_BOUND_LOWER'
p494
aF-10000000000
aa(lp495
S'OPT_COMBINE_OBJECTIVE'
p496
aS'NO'
p497
aa(lp498
S'VALUE_OBJFUNC_FILENAME'
p499
aS'of_eval.dat'
p500
aa(lp501
S'NUMBER_PART'
p502
aI8
aa(lp503
S'CONSOLE'
p504
aS'CONCISE'
p505
aa(lp506
S'GRADIENT_METHOD'
p507
aS'CONTINUOUS_ADJOINT'
p508
aatRp509
(dp510
g23
I01
sS'_filename'
p511
S'NACA.cfg'
p512
sbsS'grads'
p513
g36
sb.